; Function Attrs: mustprogress uwtable
define noundef nonnull align 8 dereferenceable(64) ptr @_ZNK6icu_7714Transliterator7toRulesERNS_13UnicodeStringEa(ptr noundef nonnull align 8 dereferenceable(84) %0, ptr noundef nonnull returned align 8 dereferenceable(64) %1, i8 noundef signext %2) unnamed_addr #1 align 2 personality ptr @__gxx_personality_v0 {
  %4 = alloca i16, align 2
  %5 = alloca %"class.icu_77::UnicodeString", align 8
  %6 = alloca %"class.icu_77::UnicodeString", align 8
  %7 = alloca %"class.icu_77::ConstChar16Ptr", align 8
  %.not = icmp eq i8 %2, 0
  br i1 %.not, label %54, label %8

8:                                                ; preds = %3
  %9 = getelementptr inbounds nuw i8, ptr %1, i64 8
  %10 = load i16, ptr %9, align 8, !tbaa !26
  %11 = and i16 %10, 1
  %.not25 = icmp eq i16 %11, 0
  br i1 %.not25, label %13, label %12

12:                                               ; preds = %8
  tail call void @_ZN6icu_7713UnicodeString7unBogusEv(ptr noundef nonnull align 8 dereferenceable(64) %1)
  br label %_ZN6icu_7713UnicodeString8truncateEi.exit

13:                                               ; preds = %8
  %14 = icmp slt i16 %10, 0
  %15 = ashr i16 %10, 5
  %16 = sext i16 %15 to i32
  %17 = getelementptr inbounds nuw i8, ptr %1, i64 12
  %18 = load i32, ptr %17, align 4
  %19 = select i1 %14, i32 %18, i32 %16
  %.not26 = icmp eq i32 %19, 0
  br i1 %.not26, label %_ZN6icu_7713UnicodeString8truncateEi.exit, label %20

20:                                               ; preds = %13
  %21 = and i16 %10, 30
  store i16 %21, ptr %9, align 8, !tbaa !26
  br label %_ZN6icu_7713UnicodeString8truncateEi.exit

_ZN6icu_7713UnicodeString8truncateEi.exit:        ; preds = %12, %13, %20
  call void @llvm.lifetime.start.p0(i64 64, ptr nonnull %5) #21
  %22 = load ptr, ptr %0, align 8, !tbaa !15
  %23 = getelementptr inbounds nuw i8, ptr %22, i64 104
  %24 = load ptr, ptr %23, align 8
  %25 = tail call noundef nonnull align 8 dereferenceable(64) ptr %24(ptr noundef nonnull align 8 dereferenceable(84) %0)
  call void @_ZN6icu_7713UnicodeStringC1ERKS0_(ptr noundef nonnull align 8 dereferenceable(64) %5, ptr noundef nonnull align 8 dereferenceable(64) %25)
  %26 = getelementptr inbounds nuw i8, ptr %5, i64 8
  %27 = getelementptr inbounds nuw i8, ptr %5, i64 12
  %28 = load i16, ptr %26, align 8, !tbaa !26
  %29 = icmp slt i16 %28, 0
  %30 = ashr i16 %28, 5
  %31 = sext i16 %30 to i32
  %32 = load i32, ptr %27, align 4
  %33 = select i1 %29, i32 %32, i32 %31
  %34 = icmp sgt i32 %33, 0
  br i1 %34, label %.lr.ph, label %._crit_edge

._crit_edge:                                      ; preds = %43, %_ZN6icu_7713UnicodeString8truncateEi.exit
  call void @_ZN6icu_7713UnicodeStringD1Ev(ptr noundef nonnull align 8 dereferenceable(64) %5) #21
  call void @llvm.lifetime.end.p0(i64 64, ptr nonnull %5) #21
  br label %60

.lr.ph:                                           ; preds = %_ZN6icu_7713UnicodeString8truncateEi.exit, %43
  %.027 = phi i32 [ %46, %43 ], [ 0, %_ZN6icu_7713UnicodeString8truncateEi.exit ]
  %35 = invoke noundef i32 @_ZNK6icu_7713UnicodeString8char32AtEi(ptr noundef nonnull align 8 dereferenceable(64) %5, i32 noundef %.027)
          to label %36 unwind label %41

36:                                               ; preds = %.lr.ph
  %37 = invoke noundef signext i8 @_ZN6icu_7711ICU_Utility17escapeUnprintableERNS_13UnicodeStringEi(ptr noundef nonnull align 8 dereferenceable(64) %1, i32 noundef %35)
          to label %38 unwind label %41

38:                                               ; preds = %36
  %.not21 = icmp eq i8 %37, 0
  br i1 %.not21, label %39, label %43

39:                                               ; preds = %38
  %40 = invoke noundef nonnull align 8 dereferenceable(64) ptr @_ZN6icu_7713UnicodeString6appendEi(ptr noundef nonnull align 8 dereferenceable(64) %1, i32 noundef %35)
          to label %43 unwind label %41

41:                                               ; preds = %39, %36, %.lr.ph
  %42 = landingpad { ptr, i32 }
          cleanup
  call void @_ZN6icu_7713UnicodeStringD1Ev(ptr noundef nonnull align 8 dereferenceable(64) %5) #21
  call void @llvm.lifetime.end.p0(i64 64, ptr nonnull %5) #21
  br label %79

43:                                               ; preds = %39, %38
  %44 = icmp ult i32 %35, 65536
  %45 = select i1 %44, i32 1, i32 2
  %46 = add nuw nsw i32 %45, %.027
  %47 = load i16, ptr %26, align 8, !tbaa !26
  %48 = icmp slt i16 %47, 0
  %49 = ashr i16 %47, 5
  %50 = sext i16 %49 to i32
  %51 = load i32, ptr %27, align 4
  %52 = select i1 %48, i32 %51, i32 %50
  %53 = icmp slt i32 %46, %52
  br i1 %53, label %.lr.ph, label %._crit_edge, !llvm.loop !75

54:                                               ; preds = %3
  %55 = load ptr, ptr %0, align 8, !tbaa !15
  %56 = getelementptr inbounds nuw i8, ptr %55, i64 104
  %57 = load ptr, ptr %56, align 8
  %58 = tail call noundef nonnull align 8 dereferenceable(64) ptr %57(ptr noundef nonnull align 8 dereferenceable(84) %0)
  %59 = tail call noundef nonnull align 8 dereferenceable(64) ptr @_ZN6icu_7713UnicodeStringaSERKS0_(ptr noundef nonnull align 8 dereferenceable(64) %1, ptr noundef nonnull align 8 dereferenceable(64) %58)
  br label %60

60:                                               ; preds = %54, %._crit_edge
  call void @llvm.lifetime.start.p0(i64 64, ptr nonnull %6) #21
  store ptr @.str.1, ptr %7, align 8, !tbaa !52
  invoke void @_ZN6icu_7713UnicodeStringC1EaNS_14ConstChar16PtrEi(ptr noundef nonnull align 8 dereferenceable(64) %6, i8 noundef signext 1, ptr noundef nonnull %7, i32 noundef -1)
          to label %61 unwind label %73

61:                                               ; preds = %60
  %62 = getelementptr inbounds nuw i8, ptr %6, i64 8
  %63 = load i16, ptr %62, align 8, !tbaa !26
  %64 = icmp slt i16 %63, 0
  %65 = ashr i16 %63, 5
  %66 = sext i16 %65 to i32
  %67 = getelementptr inbounds nuw i8, ptr %6, i64 12
  %68 = load i32, ptr %67, align 4
  %69 = select i1 %64, i32 %68, i32 %66
  %70 = invoke noundef nonnull align 8 dereferenceable(64) ptr @_ZN6icu_7713UnicodeString9doReplaceEiiRKS0_ii(ptr noundef nonnull align 8 dereferenceable(64) %1, i32 noundef 0, i32 noundef 0, ptr noundef nonnull align 8 dereferenceable(64) %6, i32 noundef 0, i32 noundef %69)
          to label %_ZN6icu_7713UnicodeString6insertEiRKS0_.exit unwind label %75

_ZN6icu_7713UnicodeString6insertEiRKS0_.exit:     ; preds = %61
  call void @_ZN6icu_7713UnicodeStringD1Ev(ptr noundef nonnull align 8 dereferenceable(64) %6) #21
  %71 = load ptr, ptr %7, align 8, !tbaa !52
  call void asm sideeffect "", "rm,~{memory},~{dirflag},~{fpsr},~{flags}"(ptr %71) #21, !srcloc !55
  call void @llvm.lifetime.end.p0(i64 64, ptr nonnull %6) #21
  call void @llvm.lifetime.start.p0(i64 2, ptr nonnull %4)
  store i16 59, ptr %4, align 2, !tbaa !24
  %72 = call noundef nonnull align 8 dereferenceable(64) ptr @_ZN6icu_7713UnicodeString8doAppendEPKDsii(ptr noundef nonnull align 8 dereferenceable(64) %1, ptr noundef nonnull %4, i32 noundef 0, i32 noundef 1)
  call void @llvm.lifetime.end.p0(i64 2, ptr nonnull %4)
  ret ptr %1

73:                                               ; preds = %60
  %74 = landingpad { ptr, i32 }
          cleanup
  br label %77

75:                                               ; preds = %61
  %76 = landingpad { ptr, i32 }
          cleanup
  call void @_ZN6icu_7713UnicodeStringD1Ev(ptr noundef nonnull align 8 dereferenceable(64) %6) #21
  br label %77

77:                                               ; preds = %75, %73
  %.pn = phi { ptr, i32 } [ %76, %75 ], [ %74, %73 ]
  %78 = load ptr, ptr %7, align 8, !tbaa !52
  call void asm sideeffect "", "rm,~{memory},~{dirflag},~{fpsr},~{flags}"(ptr %78) #21, !srcloc !55
  call void @llvm.lifetime.end.p0(i64 64, ptr nonnull %6) #21
  br label %79

79:                                               ; preds = %77, %41
  %.pn22.pn = phi { ptr, i32 } [ %42, %41 ], [ %.pn, %77 ]
  resume { ptr, i32 } %.pn22.pn
}